target datalayout = "e-m:e-p270:32:32-p271:32:32-p272:64:64-i64:64-i128:128-f80:128-n8:16:32:64-S128"
target triple = "x86_64-pc-linux-gnu"

%struct.mbedtls_psa_mac_operation_t = type { i32, %union.anon }
%union.anon = type { %struct.mbedtls_psa_hmac_operation_t }
%struct.mbedtls_psa_hmac_operation_t = type { i32, %struct.psa_hash_operation_s, [144 x i8] }
%struct.psa_hash_operation_s = type { i32, %union.psa_driver_hash_context_t }
%union.psa_driver_hash_context_t = type { %struct.mbedtls_psa_hash_operation_t }
%struct.mbedtls_psa_hash_operation_t = type { i32, %union.anon.0 }
%union.anon.0 = type { %struct.mbedtls_sha512_context }
%struct.mbedtls_sha512_context = type { [2 x i64], [8 x i64], [128 x i8], i32 }

; Function Attrs: nounwind uwtable
define internal i32 @psa_hmac_abort_internal(ptr noundef %0) #0 {
  %2 = alloca ptr, align 8
  store ptr %0, ptr %2, align 8, !tbaa !3
  %3 = load ptr, ptr %2, align 8, !tbaa !3
  %4 = getelementptr inbounds nuw %struct.mbedtls_psa_hmac_operation_t, ptr %3, i32 0, i32 2
  %5 = getelementptr inbounds [144 x i8], ptr %4, i64 0, i64 0
  call void @mbedtls_platform_zeroize(ptr noundef %5, i64 noundef 144)
  %6 = load ptr, ptr %2, align 8, !tbaa !3
  %7 = getelementptr inbounds nuw %struct.mbedtls_psa_hmac_operation_t, ptr %6, i32 0, i32 1
  %8 = call i32 @psa_hash_abort(ptr noundef %7)
  ret i32 %8
}

; Function Attrs: nounwind uwtable
define internal i32 @psa_hmac_update_internal(ptr noundef %0, ptr noundef %1, i64 noundef %2) #0 {
  %4 = alloca ptr, align 8
  %5 = alloca ptr, align 8
  %6 = alloca i64, align 8
  store ptr %0, ptr %4, align 8, !tbaa !3
  store ptr %1, ptr %5, align 8, !tbaa !12
  store i64 %2, ptr %6, align 8, !tbaa !14
  %7 = load ptr, ptr %4, align 8, !tbaa !3
  %8 = getelementptr inbounds nuw %struct.mbedtls_psa_hmac_operation_t, ptr %7, i32 0, i32 1
  %9 = load ptr, ptr %5, align 8, !tbaa !12
  %10 = load i64, ptr %6, align 8, !tbaa !14
  %11 = call i32 @psa_hash_update(ptr noundef %8, ptr noundef %9, i64 noundef %10)
  ret i32 %11
}

; Function Attrs: nounwind uwtable
define hidden i32 @mbedtls_psa_mac_abort(ptr noundef %0) #0 {
  %2 = alloca i32, align 4
  %3 = alloca ptr, align 8
  store ptr %0, ptr %3, align 8, !tbaa !3
  %4 = load ptr, ptr %3, align 8, !tbaa !3
  %5 = getelementptr inbounds nuw %struct.mbedtls_psa_mac_operation_t, ptr %4, i32 0, i32 0
  %6 = load i32, ptr %5, align 8, !tbaa !7
  %7 = icmp eq i32 %6, 0
  br i1 %7, label %8, label %9

8:                                                ; preds = %1
  store i32 0, ptr %2, align 4
  br label %36

9:                                                ; preds = %1
  %10 = load ptr, ptr %3, align 8, !tbaa !3
  %11 = getelementptr inbounds nuw %struct.mbedtls_psa_mac_operation_t, ptr %10, i32 0, i32 0
  %12 = load i32, ptr %11, align 8, !tbaa !7
  %13 = and i32 %12, -4161537
  %14 = icmp eq i32 %13, 62915072
  br i1 %14, label %15, label %18

15:                                               ; preds = %9
  %16 = load ptr, ptr %3, align 8, !tbaa !3
  %17 = getelementptr inbounds nuw %struct.mbedtls_psa_mac_operation_t, ptr %16, i32 0, i32 1
  call void @mbedtls_cipher_free(ptr noundef %17)
  br label %30

18:                                               ; preds = %9
  %19 = load ptr, ptr %3, align 8, !tbaa !3
  %20 = getelementptr inbounds nuw %struct.mbedtls_psa_mac_operation_t, ptr %19, i32 0, i32 0
  %21 = load i32, ptr %20, align 8, !tbaa !7
  %22 = and i32 %21, 2143289344
  %23 = icmp eq i32 %22, 58720256
  br i1 %23, label %24, label %28

24:                                               ; preds = %18
  %25 = load ptr, ptr %3, align 8, !tbaa !3
  %26 = getelementptr inbounds nuw %struct.mbedtls_psa_mac_operation_t, ptr %25, i32 0, i32 1
  %27 = call i32 @psa_hmac_abort_internal(ptr noundef %26)
  br label %29

28:                                               ; preds = %18
  br label %34

29:                                               ; preds = %24
  br label %30

30:                                               ; preds = %29, %15
  br label %31

31:                                               ; preds = %30
  %32 = load ptr, ptr %3, align 8, !tbaa !3
  %33 = getelementptr inbounds nuw %struct.mbedtls_psa_mac_operation_t, ptr %32, i32 0, i32 0
  store i32 0, ptr %33, align 8, !tbaa !7
  store i32 0, ptr %2, align 4
  br label %36

34:                                               ; preds = %28
  %35 = load ptr, ptr %3, align 8, !tbaa !3
  call void @llvm.memset.p0.i64(ptr align 8 %35, i8 0, i64 392, i1 false)
  store i32 -137, ptr %2, align 4
  br label %36

36:                                               ; preds = %34, %31, %8
  %37 = load i32, ptr %2, align 4
  ret i32 %37
}

; Function Attrs: nounwind uwtable
define hidden i32 @mbedtls_psa_mac_update(ptr noundef %0, ptr noundef %1, i64 noundef %2) #0 {
  %4 = alloca i32, align 4
  %5 = alloca ptr, align 8
  %6 = alloca ptr, align 8
  %7 = alloca i64, align 8
  store ptr %0, ptr %5, align 8, !tbaa !3
  store ptr %1, ptr %6, align 8, !tbaa !12
  store i64 %2, ptr %7, align 8, !tbaa !14
  %8 = load ptr, ptr %5, align 8, !tbaa !3
  %9 = getelementptr inbounds nuw %struct.mbedtls_psa_mac_operation_t, ptr %8, i32 0, i32 0
  %10 = load i32, ptr %9, align 8, !tbaa !7
  %11 = icmp eq i32 %10, 0
  br i1 %11, label %12, label %13

12:                                               ; preds = %3
  store i32 -137, ptr %4, align 4
  br label %39

13:                                               ; preds = %3
  %14 = load ptr, ptr %5, align 8, !tbaa !3
  %15 = getelementptr inbounds nuw %struct.mbedtls_psa_mac_operation_t, ptr %14, i32 0, i32 0
  %16 = load i32, ptr %15, align 8, !tbaa !7
  %17 = and i32 %16, -4161537
  %18 = icmp eq i32 %17, 62915072
  br i1 %18, label %19, label %26

19:                                               ; preds = %13
  %20 = load ptr, ptr %5, align 8, !tbaa !3
  %21 = getelementptr inbounds nuw %struct.mbedtls_psa_mac_operation_t, ptr %20, i32 0, i32 1
  %22 = load ptr, ptr %6, align 8, !tbaa !12
  %23 = load i64, ptr %7, align 8, !tbaa !14
  %24 = call i32 @mbedtls_cipher_cmac_update(ptr noundef %21, ptr noundef %22, i64 noundef %23)
  %25 = call i32 @mbedtls_to_psa_error(i32 noundef %24)
  store i32 %25, ptr %4, align 4
  br label %39

26:                                               ; preds = %13
  %27 = load ptr, ptr %5, align 8, !tbaa !3
  %28 = getelementptr inbounds nuw %struct.mbedtls_psa_mac_operation_t, ptr %27, i32 0, i32 0
  %29 = load i32, ptr %28, align 8, !tbaa !7
  %30 = and i32 %29, 2143289344
  %31 = icmp eq i32 %30, 58720256
  br i1 %31, label %32, label %38

32:                                               ; preds = %26
  %33 = load ptr, ptr %5, align 8, !tbaa !3
  %34 = getelementptr inbounds nuw %struct.mbedtls_psa_mac_operation_t, ptr %33, i32 0, i32 1
  %35 = load ptr, ptr %6, align 8, !tbaa !12
  %36 = load i64, ptr %7, align 8, !tbaa !14
  %37 = call i32 @psa_hmac_update_internal(ptr noundef %34, ptr noundef %35, i64 noundef %36)
  store i32 %37, ptr %4, align 4
  br label %39

38:                                               ; preds = %26
  store i32 -137, ptr %4, align 4
  br label %39

39:                                               ; preds = %38, %32, %19, %12
  %40 = load i32, ptr %4, align 4
  ret i32 %40
}

; Function Attrs: nounwind uwtable
define hidden i32 @mbedtls_psa_mac_compute(ptr noundef %0, ptr noundef %1, i64 noundef %2, i32 noundef %3, ptr noundef %4, i64 noundef %5, ptr noundef %6, i64 noundef %7, ptr noundef %8) #0 {
  %10 = alloca ptr, align 8
  %11 = alloca ptr, align 8
  %12 = alloca i64, align 8
  %13 = alloca i32, align 4
  %14 = alloca ptr, align 8
  %15 = alloca i64, align 8
  %16 = alloca ptr, align 8
  %17 = alloca i64, align 8
  %18 = alloca ptr, align 8
  %19 = alloca i32, align 4
  %20 = alloca %struct.mbedtls_psa_mac_operation_t, align 8
  store ptr %0, ptr %10, align 8, !tbaa !10
  store ptr %1, ptr %11, align 8, !tbaa !12
  store i64 %2, ptr %12, align 8, !tbaa !14
  store i32 %3, ptr %13, align 4, !tbaa !16
  store ptr %4, ptr %14, align 8, !tbaa !12
  store i64 %5, ptr %15, align 8, !tbaa !14
  store ptr %6, ptr %16, align 8, !tbaa !12
  store i64 %7, ptr %17, align 8, !tbaa !14
  store ptr %8, ptr %18, align 8, !tbaa !17
  call void @llvm.lifetime.start.p0(i64 4, ptr %19) #6
  store i32 -151, ptr %19, align 4, !tbaa !16
  call void @llvm.lifetime.start.p0(i64 392, ptr %20) #6
  call void @llvm.memset.p0.i64(ptr align 8 %20, i8 0, i64 392, i1 false)
  %21 = load ptr, ptr %10, align 8, !tbaa !10
  %22 = load ptr, ptr %11, align 8, !tbaa !12
  %23 = load i64, ptr %12, align 8, !tbaa !14
  %24 = load i32, ptr %13, align 4, !tbaa !16
  %25 = call i32 @psa_mac_setup(ptr noundef %20, ptr noundef %21, ptr noundef %22, i64 noundef %23, i32 noundef %24)
  store i32 %25, ptr %19, align 4, !tbaa !16
  %26 = load i32, ptr %19, align 4, !tbaa !16
  %27 = icmp ne i32 %26, 0
  br i1 %27, label %28, label %29

28:                                               ; preds = %9
  br label %50

29:                                               ; preds = %9
  %30 = load i64, ptr %15, align 8, !tbaa !14
  %31 = icmp ugt i64 %30, 0
  br i1 %31, label %32, label %40

32:                                               ; preds = %29
  %33 = load ptr, ptr %14, align 8, !tbaa !12
  %34 = load i64, ptr %15, align 8, !tbaa !14
  %35 = call i32 @mbedtls_psa_mac_update(ptr noundef %20, ptr noundef %33, i64 noundef %34)
  store i32 %35, ptr %19, align 4, !tbaa !16
  %36 = load i32, ptr %19, align 4, !tbaa !16
  %37 = icmp ne i32 %36, 0
  br i1 %37, label %38, label %39

38:                                               ; preds = %32
  br label %50

39:                                               ; preds = %32
  br label %40

40:                                               ; preds = %39, %29
  %41 = load ptr, ptr %16, align 8, !tbaa !12
  %42 = load i64, ptr %17, align 8, !tbaa !14
  %43 = call i32 @psa_mac_finish_internal(ptr noundef %20, ptr noundef %41, i64 noundef %42)
  store i32 %43, ptr %19, align 4, !tbaa !16
  %44 = load i32, ptr %19, align 4, !tbaa !16
  %45 = icmp eq i32 %44, 0
  br i1 %45, label %46, label %49

46:                                               ; preds = %40
  %47 = load i64, ptr %17, align 8, !tbaa !14
  %48 = load ptr, ptr %18, align 8, !tbaa !17
  store i64 %47, ptr %48, align 8, !tbaa !14
  br label %49

49:                                               ; preds = %46, %40
  br label %50

50:                                               ; preds = %49, %38, %28
  %51 = call i32 @mbedtls_psa_mac_abort(ptr noundef %20)
  %52 = load i32, ptr %19, align 4, !tbaa !16
  call void @llvm.lifetime.end.p0(i64 392, ptr %20) #6
  call void @llvm.lifetime.end.p0(i64 4, ptr %19) #6
  ret i32 %52
}