; Function Attrs: nounwind uwtable
define hidden i32 @mbedtls_psa_mac_compute(ptr noundef readonly captures(none) %0, ptr noundef %1, i64 noundef %2, i32 noundef %3, ptr noundef %4, i64 noundef %5, ptr noundef writeonly captures(none) %6, i64 noundef %7, ptr noundef writeonly captures(none) %8) local_unnamed_addr #0 {
  %10 = alloca %struct.mbedtls_psa_mac_operation_t, align 8
  call void @llvm.lifetime.start.p0(i64 392, ptr nonnull %10) #5
  call void @llvm.memset.p0.i64(ptr noundef nonnull align 8 dereferenceable(392) %10, i8 0, i64 392, i1 false)
  %11 = call fastcc i32 @psa_mac_setup(ptr noundef nonnull %10, ptr noundef %0, ptr noundef %1, i64 noundef %2, i32 noundef %3)
  %.not = icmp eq i32 %11, 0
  br i1 %.not, label %12, label %mbedtls_psa_mac_update.exit.thread

12:                                               ; preds = %9
  %.not18 = icmp eq i64 %5, 0
  br i1 %.not18, label %29, label %13

13:                                               ; preds = %12
  %14 = load i32, ptr %10, align 8, !tbaa !3
  %15 = icmp eq i32 %14, 0
  br i1 %15, label %mbedtls_psa_mac_abort.exit, label %16

16:                                               ; preds = %13
  %17 = and i32 %14, -4161537
  %18 = icmp eq i32 %17, 62915072
  br i1 %18, label %19, label %23

19:                                               ; preds = %16
  %20 = getelementptr inbounds nuw i8, ptr %10, i64 8
  %21 = call i32 @mbedtls_cipher_cmac_update(ptr noundef nonnull %20, ptr noundef %4, i64 noundef %5) #5
  %22 = call i32 @mbedtls_to_psa_error(i32 noundef %21) #5
  br label %mbedtls_psa_mac_update.exit

23:                                               ; preds = %16
  %24 = and i32 %14, 2143289344
  %25 = icmp eq i32 %24, 58720256
  br i1 %25, label %26, label %mbedtls_psa_mac_update.exit.thread

26:                                               ; preds = %23
  %27 = getelementptr inbounds nuw i8, ptr %10, i64 16
  %28 = call i32 @psa_hash_update(ptr noundef nonnull %27, ptr noundef %4, i64 noundef %5) #5
  br label %mbedtls_psa_mac_update.exit

mbedtls_psa_mac_update.exit:                      ; preds = %19, %26
  %.0.i = phi i32 [ %22, %19 ], [ %28, %26 ]
  %.not19 = icmp eq i32 %.0.i, 0
  br i1 %.not19, label %29, label %mbedtls_psa_mac_update.exit.thread

29:                                               ; preds = %mbedtls_psa_mac_update.exit, %12
  %30 = call fastcc i32 @psa_mac_finish_internal(ptr noundef nonnull %10, ptr noundef %6, i64 noundef %7)
  %31 = icmp eq i32 %30, 0
  br i1 %31, label %32, label %mbedtls_psa_mac_update.exit.thread

32:                                               ; preds = %29
  store i64 %7, ptr %8, align 8, !tbaa !13
  br label %mbedtls_psa_mac_update.exit.thread

mbedtls_psa_mac_update.exit.thread:               ; preds = %23, %29, %32, %mbedtls_psa_mac_update.exit, %9
  %.0.ph = phi i32 [ -137, %23 ], [ %30, %29 ], [ 0, %32 ], [ %.0.i, %mbedtls_psa_mac_update.exit ], [ %11, %9 ]
  %.pr = load i32, ptr %10, align 8, !tbaa !3
  %33 = icmp eq i32 %.pr, 0
  br i1 %33, label %mbedtls_psa_mac_abort.exit, label %34

34:                                               ; preds = %mbedtls_psa_mac_update.exit.thread
  %35 = and i32 %.pr, -4161537
  %36 = icmp eq i32 %35, 62915072
  br i1 %36, label %37, label %39

37:                                               ; preds = %34
  %38 = getelementptr inbounds nuw i8, ptr %10, i64 8
  call void @mbedtls_cipher_free(ptr noundef nonnull %38) #5
  br label %mbedtls_psa_mac_abort.exit

39:                                               ; preds = %34
  %40 = and i32 %.pr, 2143289344
  %41 = icmp eq i32 %40, 58720256
  br i1 %41, label %42, label %mbedtls_psa_mac_abort.exit

42:                                               ; preds = %39
  %43 = getelementptr inbounds nuw i8, ptr %10, i64 248
  call void @mbedtls_platform_zeroize(ptr noundef nonnull %43, i64 noundef 144) #5
  %44 = getelementptr inbounds nuw i8, ptr %10, i64 16
  %45 = call i32 @psa_hash_abort(ptr noundef nonnull %44) #5
  br label %mbedtls_psa_mac_abort.exit

mbedtls_psa_mac_abort.exit:                       ; preds = %39, %37, %42, %13, %mbedtls_psa_mac_update.exit.thread
  %.024 = phi i32 [ %.0.ph, %mbedtls_psa_mac_update.exit.thread ], [ -137, %13 ], [ %.0.ph, %42 ], [ %.0.ph, %37 ], [ %.0.ph, %39 ]
  call void @llvm.lifetime.end.p0(i64 392, ptr nonnull %10) #5
  ret i32 %.024
}